target datalayout = "e-m:e-p270:32:32-p271:32:32-p272:64:64-i64:64-i128:128-f80:128-n8:16:32:64-S128"
target triple = "x86_64-pc-linux-gnu"

%"class.clang::StandardConversionSequence" = type { i64, ptr, [3 x ptr], ptr, %"class.clang::DeclAccessPair" }
%"class.clang::DeclAccessPair" = type { %"struct.llvm::support::detail::packed_endian_specific_integral" }
%"struct.llvm::support::detail::packed_endian_specific_integral" = type { %struct.anon }
%struct.anon = type { [8 x i8] }
%"class.clang::QualType" = type { %"class.llvm::PointerIntPair" }
%"class.llvm::PointerIntPair" = type { %"struct.llvm::detail::PunnedPointer" }
%"struct.llvm::detail::PunnedPointer" = type { [8 x i8] }
%"class.llvm::FoldingSetBase::Node" = type { ptr }
%"class.llvm::SmallVectorBase" = type { ptr, i32, i32 }
%"struct.clang::DeductionFailureInfo" = type { i16, ptr, [32 x i8] }
%"class.clang::ConstraintSatisfaction" = type { %"class.llvm::FoldingSetBase::Node", ptr, %"class.llvm::SmallVector.439", i8, i8, %"class.llvm::SmallVector.444" }
%"class.llvm::SmallVector.439" = type { %"class.llvm::SmallVectorImpl.440", %"struct.llvm::SmallVectorStorage.443" }
%"class.llvm::SmallVectorImpl.440" = type { %"class.llvm::SmallVectorTemplateBase.441" }
%"class.llvm::SmallVectorTemplateBase.441" = type { %"class.llvm::SmallVectorTemplateCommon.442" }
%"class.llvm::SmallVectorTemplateCommon.442" = type { %"class.llvm::SmallVectorBase" }
%"struct.llvm::SmallVectorStorage.443" = type { [96 x i8] }
%"class.llvm::SmallVector.444" = type { %"class.llvm::SmallVectorImpl.445", %"struct.llvm::SmallVectorStorage.448" }
%"class.llvm::SmallVectorImpl.445" = type { %"class.llvm::SmallVectorTemplateBase.446" }
%"class.llvm::SmallVectorTemplateBase.446" = type { %"class.llvm::SmallVectorTemplateCommon.447" }
%"class.llvm::SmallVectorTemplateCommon.447" = type { %"class.llvm::SmallVectorBase" }
%"struct.llvm::SmallVectorStorage.448" = type { [32 x i8] }
%"struct.(anonymous namespace)::CNSInfo" = type { ptr, %"class.clang::ConstraintSatisfaction" }
%"struct.clang::OverloadCandidate" = type { ptr, %"class.clang::DeclAccessPair", [3 x %"class.clang::QualType"], ptr, %"class.llvm::MutableArrayRef", %"struct.clang::ConversionFixItGenerator", i8, i8, i32, %union.anon.1131 }
%"class.llvm::MutableArrayRef" = type { %"class.llvm::ArrayRef.1125" }
%"class.llvm::ArrayRef.1125" = type { ptr, i64 }
%"struct.clang::ConversionFixItGenerator" = type { %"class.std::vector.1126", i32, i32, ptr }
%"class.std::vector.1126" = type { %"struct.std::_Vector_base.1127" }
%"struct.std::_Vector_base.1127" = type { %"struct.std::_Vector_base<clang::FixItHint, std::allocator<clang::FixItHint>>::_Vector_impl" }
%"struct.std::_Vector_base<clang::FixItHint, std::allocator<clang::FixItHint>>::_Vector_impl" = type { %"struct.std::_Vector_base<clang::FixItHint, std::allocator<clang::FixItHint>>::_Vector_impl_data" }
%"struct.std::_Vector_base<clang::FixItHint, std::allocator<clang::FixItHint>>::_Vector_impl_data" = type { ptr, ptr, ptr }
%union.anon.1131 = type { %"class.clang::StandardConversionSequence" }

; Function Attrs: mustprogress nounwind uwtable
define dso_local noundef zeroext i1 @_ZNK5clang17OverloadCandidate37NotValidBecauseConstraintExprHasErrorEv(ptr noundef nonnull align 8 dereferenceable(168) %0) #0 align 2 {
  %2 = alloca ptr, align 8
  store ptr %0, ptr %2, align 8
  %3 = load ptr, ptr %2, align 8
  %4 = getelementptr inbounds nuw %"struct.clang::OverloadCandidate", ptr %3, i32 0, i32 7
  %5 = load i8, ptr %4, align 1
  %6 = zext i8 %5 to i32
  %7 = icmp eq i32 %6, 3
  br i1 %7, label %8, label %22

8:                                                ; preds = %1
  %9 = getelementptr inbounds nuw %"struct.clang::OverloadCandidate", ptr %3, i32 0, i32 9
  %10 = load i16, ptr %9, align 8
  %11 = and i16 %10, 255
  %12 = zext i16 %11 to i32
  %13 = icmp eq i32 %12, 15
  br i1 %13, label %14, label %22

14:                                               ; preds = %8
  %15 = getelementptr inbounds nuw %"struct.clang::OverloadCandidate", ptr %3, i32 0, i32 9
  %16 = getelementptr inbounds nuw %"struct.clang::DeductionFailureInfo", ptr %15, i32 0, i32 1
  %17 = load ptr, ptr %16, align 8
  %18 = getelementptr inbounds nuw %"struct.(anonymous namespace)::CNSInfo", ptr %17, i32 0, i32 1
  %19 = getelementptr inbounds nuw %"class.clang::ConstraintSatisfaction", ptr %18, i32 0, i32 4
  %20 = load i8, ptr %19, align 1
  %21 = trunc i8 %20 to i1
  br label %22

22:                                               ; preds = %14, %8, %1
  %23 = phi i1 [ false, %8 ], [ false, %1 ], [ %21, %14 ]
  ret i1 %23
}