; Function Attrs: mustprogress nofree norecurse nosync nounwind willreturn memory(read, inaccessiblemem: none) uwtable
define dso_local noundef zeroext i1 @_ZNK5clang17OverloadCandidate37NotValidBecauseConstraintExprHasErrorEv(ptr nocapture noundef nonnull readonly align 8 dereferenceable(168) %0) local_unnamed_addr #3 align 2 {
  %2 = getelementptr inbounds nuw i8, ptr %0, i64 105
  %3 = load i8, ptr %2, align 1
  %4 = icmp eq i8 %3, 3
  br i1 %4, label %5, label %16

5:                                                ; preds = %1
  %6 = getelementptr inbounds nuw i8, ptr %0, i64 112
  %7 = load i16, ptr %6, align 8
  %8 = and i16 %7, 255
  %9 = icmp eq i16 %8, 15
  br i1 %9, label %10, label %16

10:                                               ; preds = %5
  %11 = getelementptr inbounds i8, ptr %0, i64 120
  %12 = load ptr, ptr %11, align 8
  %13 = getelementptr inbounds i8, ptr %12, i64 137
  %14 = load i8, ptr %13, align 1
  %15 = trunc i8 %14 to i1
  br label %16

16:                                               ; preds = %10, %5, %1
  %17 = phi i1 [ false, %5 ], [ false, %1 ], [ %15, %10 ]
  ret i1 %17
}